target datalayout = "e-m:e-p270:32:32-p271:32:32-p272:64:64-i64:64-i128:128-f80:128-n8:16:32:64-S128"
target triple = "x86_64-pc-linux-gnu"

%struct._zend_signal_globals_t = type { i32, i32, i32, i32, i8, i8, [65 x %struct._zend_signal_entry_t], [64 x %struct._zend_signal_queue_t], ptr, ptr, ptr }
%struct._zend_signal_entry_t = type { i32, ptr }
%struct._zend_signal_queue_t = type { %struct._zend_signal_t, ptr }
%struct._zend_signal_t = type { i32, ptr, ptr }
%struct.__sigset_t = type { [16 x i64] }
%struct.sigaction = type { %union.anon, %struct.__sigset_t, i32, ptr }
%union.anon = type { ptr }

@zend_signal_globals = global %struct._zend_signal_globals_t zeroinitializer, align 8

; Function Attrs: nounwind uwtable
define internal void @zend_signal_handler(i32 noundef %0, ptr noundef %1, ptr noundef %2) #0 {
  %4 = alloca i32, align 4
  %5 = alloca ptr, align 8
  %6 = alloca ptr, align 8
  %7 = alloca i32, align 4
  %8 = alloca %struct.sigaction, align 8
  %9 = alloca %struct.__sigset_t, align 8
  %10 = alloca %struct._zend_signal_entry_t, align 8
  store i32 %0, ptr %4, align 4
  store ptr %1, ptr %5, align 8
  store ptr %2, ptr %6, align 8
  %11 = call ptr @__errno_location() #7
  %12 = load i32, ptr %11, align 4
  store i32 %12, ptr %7, align 4
  %13 = load i32, ptr %4, align 4
  %14 = sub nsw i32 %13, 1
  %15 = sext i32 %14 to i64
  %16 = getelementptr inbounds [65 x %struct._zend_signal_entry_t], ptr getelementptr inbounds (%struct._zend_signal_globals_t, ptr @zend_signal_globals, i32 0, i32 6), i64 0, i64 %15
  call void @llvm.memcpy.p0.p0.i64(ptr align 8 %10, ptr align 8 %16, i64 16, i1 false)
  %17 = getelementptr inbounds %struct._zend_signal_entry_t, ptr %10, i32 0, i32 1
  %18 = load ptr, ptr %17, align 8
  %19 = icmp eq ptr %18, null
  br i1 %19, label %20, label %41

20:                                               ; preds = %3
  %21 = load i32, ptr %4, align 4
  %22 = call i32 @sigaction(i32 noundef %21, ptr noundef null, ptr noundef %8) #8
  %23 = icmp eq i32 %22, 0
  br i1 %23, label %24, label %40

24:                                               ; preds = %20
  %25 = getelementptr inbounds %struct.sigaction, ptr %8, i32 0, i32 0
  store ptr null, ptr %25, align 8
  %26 = getelementptr inbounds %struct.sigaction, ptr %8, i32 0, i32 1
  %27 = call i32 @sigemptyset(ptr noundef %26) #8
  %28 = call i32 @sigemptyset(ptr noundef %9) #8
  %29 = load i32, ptr %4, align 4
  %30 = call i32 @sigaddset(ptr noundef %9, i32 noundef %29) #8
  %31 = load i32, ptr %4, align 4
  %32 = call i32 @sigaction(i32 noundef %31, ptr noundef %8, ptr noundef null) #8
  %33 = icmp eq i32 %32, 0
  br i1 %33, label %34, label %39

34:                                               ; preds = %24
  %35 = call i32 @sigprocmask(i32 noundef 1, ptr noundef %9, ptr noundef null) #8
  %36 = call i32 @getpid() #8
  %37 = load i32, ptr %4, align 4
  %38 = call i32 @kill(i32 noundef %36, i32 noundef %37) #8
  br label %39

39:                                               ; preds = %34, %24
  br label %40

40:                                               ; preds = %39, %20
  br label %78

41:                                               ; preds = %3
  %42 = getelementptr inbounds %struct._zend_signal_entry_t, ptr %10, i32 0, i32 1
  %43 = load ptr, ptr %42, align 8
  %44 = icmp ne ptr %43, inttoptr (i64 1 to ptr)
  br i1 %44, label %45, label %77

45:                                               ; preds = %41
  %46 = getelementptr inbounds %struct._zend_signal_entry_t, ptr %10, i32 0, i32 0
  %47 = load i32, ptr %46, align 8
  %48 = and i32 %47, 4
  %49 = icmp ne i32 %48, 0
  br i1 %49, label %50, label %72

50:                                               ; preds = %45
  %51 = getelementptr inbounds %struct._zend_signal_entry_t, ptr %10, i32 0, i32 0
  %52 = load i32, ptr %51, align 8
  %53 = and i32 %52, -2147483648
  %54 = icmp ne i32 %53, 0
  br i1 %54, label %55, label %66

55:                                               ; preds = %50
  %56 = load i32, ptr %4, align 4
  %57 = sub nsw i32 %56, 1
  %58 = sext i32 %57 to i64
  %59 = getelementptr inbounds [65 x %struct._zend_signal_entry_t], ptr getelementptr inbounds (%struct._zend_signal_globals_t, ptr @zend_signal_globals, i32 0, i32 6), i64 0, i64 %58
  %60 = getelementptr inbounds %struct._zend_signal_entry_t, ptr %59, i32 0, i32 0
  store i32 0, ptr %60, align 8
  %61 = load i32, ptr %4, align 4
  %62 = sub nsw i32 %61, 1
  %63 = sext i32 %62 to i64
  %64 = getelementptr inbounds [65 x %struct._zend_signal_entry_t], ptr getelementptr inbounds (%struct._zend_signal_globals_t, ptr @zend_signal_globals, i32 0, i32 6), i64 0, i64 %63
  %65 = getelementptr inbounds %struct._zend_signal_entry_t, ptr %64, i32 0, i32 1
  store ptr null, ptr %65, align 8
  br label %66

66:                                               ; preds = %55, %50
  %67 = getelementptr inbounds %struct._zend_signal_entry_t, ptr %10, i32 0, i32 1
  %68 = load ptr, ptr %67, align 8
  %69 = load i32, ptr %4, align 4
  %70 = load ptr, ptr %5, align 8
  %71 = load ptr, ptr %6, align 8
  call void %68(i32 noundef %69, ptr noundef %70, ptr noundef %71)
  br label %76

72:                                               ; preds = %45
  %73 = getelementptr inbounds %struct._zend_signal_entry_t, ptr %10, i32 0, i32 1
  %74 = load ptr, ptr %73, align 8
  %75 = load i32, ptr %4, align 4
  call void %74(i32 noundef %75)
  br label %76

76:                                               ; preds = %72, %66
  br label %77

77:                                               ; preds = %76, %41
  br label %78

78:                                               ; preds = %77, %40
  %79 = load i32, ptr %7, align 4
  %80 = call ptr @__errno_location() #7
  store i32 %79, ptr %80, align 4
  ret void
}