; Function Attrs: nounwind uwtable
define internal fastcc void @zend_signal_handler(i32 noundef %0, ptr noundef %1, ptr noundef %2) unnamed_addr #0 {
  %4 = alloca %struct.sigaction, align 8
  %5 = alloca %struct.__sigset_t, align 8
  %6 = tail call ptr @__errno_location() #8
  %7 = load i32, ptr %6, align 4
  %8 = add nsw i32 %0, -1
  %9 = sext i32 %8 to i64
  %10 = getelementptr inbounds %struct._zend_signal_globals_t, ptr @zend_signal_globals, i64 0, i32 6, i64 %9
  %.sroa.0.0.copyload = load i32, ptr %10, align 8
  %.sroa.32.0..sroa_idx = getelementptr inbounds i8, ptr %10, i64 8
  %.sroa.32.0.copyload = load ptr, ptr %.sroa.32.0..sroa_idx, align 8
  %magicptr = ptrtoint ptr %.sroa.32.0.copyload to i64
  switch i64 %magicptr, label %25 [
    i64 0, label %11
    i64 1, label %31
  ]

11:                                               ; preds = %3
  %12 = call i32 @sigaction(i32 noundef %0, ptr noundef null, ptr noundef nonnull %4) #9
  %13 = icmp eq i32 %12, 0
  br i1 %13, label %14, label %31

14:                                               ; preds = %11
  store ptr null, ptr %4, align 8
  %15 = getelementptr inbounds i8, ptr %4, i64 8
  %16 = call i32 @sigemptyset(ptr noundef nonnull %15) #9
  %17 = call i32 @sigemptyset(ptr noundef nonnull %5) #9
  %18 = call i32 @sigaddset(ptr noundef nonnull %5, i32 noundef %0) #9
  %19 = call i32 @sigaction(i32 noundef %0, ptr noundef nonnull %4, ptr noundef null) #9
  %20 = icmp eq i32 %19, 0
  br i1 %20, label %21, label %31

21:                                               ; preds = %14
  %22 = call i32 @sigprocmask(i32 noundef 1, ptr noundef nonnull %5, ptr noundef null) #9
  %23 = call i32 @getpid() #9
  %24 = call i32 @kill(i32 noundef %23, i32 noundef %0) #9
  br label %31

25:                                               ; preds = %3
  %26 = and i32 %.sroa.0.0.copyload, 4
  %.not16 = icmp eq i32 %26, 0
  br i1 %.not16, label %30, label %27

27:                                               ; preds = %25
  %.not17 = icmp sgt i32 %.sroa.0.0.copyload, -1
  br i1 %.not17, label %29, label %28

28:                                               ; preds = %27
  store i32 0, ptr %10, align 8
  store ptr null, ptr %.sroa.32.0..sroa_idx, align 8
  br label %29

29:                                               ; preds = %28, %27
  tail call void %.sroa.32.0.copyload(i32 noundef %0, ptr noundef %1, ptr noundef %2) #9
  br label %31

30:                                               ; preds = %25
  tail call void %.sroa.32.0.copyload(i32 noundef %0) #9
  br label %31

31:                                               ; preds = %3, %30, %29, %11, %21, %14
  store i32 %7, ptr %6, align 4
  ret void
}